target datalayout = "e-m:e-p270:32:32-p271:32:32-p272:64:64-i64:64-i128:128-f80:128-n8:16:32:64-S128"
target triple = "x86_64-pc-linux-gnu"

%union.CPUTailQ = type { %struct.QTailQLink }
%struct.QTailQLink = type { ptr, ptr }
%struct.CPUState = type { %struct.DeviceState, ptr, i32, ptr, i32, i8, i8, ptr, i8, i8, i8, i8, i8, i8, i8, i8, i32, i32, i32, i32, i64, i64, i64, [1 x %struct.__jmp_buf_tag], %struct.QemuMutex, %struct.anon.0, ptr, i32, i32, ptr, ptr, ptr, ptr, i32, i32, %union.anon, %union.anon.1, %union.anon.2, ptr, ptr, i64, i32, ptr, ptr, ptr, i32, i64, i32, i8, %struct.QemuLockCnt, ptr, i32, i32, i32, i32, i32, ptr, i8, i64, i8, i8, ptr, [0 x i8], %struct.CPUNegativeOffsetState }
%struct.DeviceState = type { %struct.Object, ptr, ptr, i8, i8, i64, i32, i8, ptr, %struct.NamedGPIOListHead, %struct.NamedClockListHead, %struct.BusStateHead, i32, i32, i32, %struct.ResettableState, ptr, %struct.MemReentrancyGuard }
%struct.Object = type { ptr, ptr, ptr, i32, ptr }
%struct.NamedGPIOListHead = type { ptr }
%struct.NamedClockListHead = type { ptr }
%struct.BusStateHead = type { ptr }
%struct.ResettableState = type { i32, i8, i8 }
%struct.MemReentrancyGuard = type { i8 }
%struct.__jmp_buf_tag = type { [8 x i64], i32, %struct.__sigset_t }
%struct.__sigset_t = type { [16 x i64] }
%struct.QemuMutex = type { %union.pthread_mutex_t, i8 }
%union.pthread_mutex_t = type { %struct.__pthread_mutex_s }
%struct.__pthread_mutex_s = type { i32, i32, i32, i32, i32, i16, i16, %struct.__pthread_internal_list }
%struct.__pthread_internal_list = type { ptr, ptr }
%struct.anon.0 = type { ptr, ptr }
%union.anon = type { %struct.QTailQLink }
%union.anon.1 = type { %struct.QTailQLink }
%union.anon.2 = type { %struct.QTailQLink }
%struct.QemuLockCnt = type { i32 }
%struct.CPUNegativeOffsetState = type { %struct.CPUTLB, ptr, i64, i64, %union.IcountDecr, i8 }
%struct.CPUTLB = type { %struct.CPUTLBCommon, [16 x %struct.CPUTLBDesc], [16 x %struct.CPUTLBDescFast] }
%struct.CPUTLBCommon = type { %struct.QemuSpin, i16, i64, i64, i64 }
%struct.QemuSpin = type { i32 }
%struct.CPUTLBDesc = type { i64, i64, i64, i64, i64, i64, [8 x %union.CPUTLBEntry], [8 x %struct.CPUTLBEntryFull], ptr }
%union.CPUTLBEntry = type { %struct.anon.3 }
%struct.anon.3 = type { i64, i64, i64, i64 }
%struct.CPUTLBEntryFull = type { i64, i64, %struct.MemTxAttrs, i8, i8, i8, [3 x i8], %union.anon.4 }
%struct.MemTxAttrs = type { i32, i8, i8, i16 }
%union.anon.4 = type { %struct.anon.5 }
%struct.anon.5 = type { i8, i8, i8 }
%struct.CPUTLBDescFast = type { i64, ptr }
%union.IcountDecr = type { i32 }

@cpus_queue = external global %union.CPUTailQ, align 8

; Function Attrs: nounwind sspstrong uwtable
define dso_local i32 @gdb_get_max_cpus() #0 {
  %1 = alloca ptr, align 8
  %2 = alloca i32, align 4
  %3 = alloca ptr, align 8
  %4 = alloca ptr, align 8
  %5 = alloca ptr, align 8
  %6 = alloca ptr, align 8
  call void @llvm.lifetime.start.p0(i64 8, ptr %1) #14
  store ptr null, ptr %1, align 8, !annotation !4
  call void @llvm.lifetime.start.p0(i64 4, ptr %2) #14
  store i32 1, ptr %2, align 4
  br label %7

7:                                                ; preds = %0
  br i1 false, label %8, label %9

8:                                                ; preds = %7
  call void @qemu_build_not_reached_always() #17, !srcloc !26
  unreachable

9:                                                ; preds = %7
  call void @llvm.lifetime.start.p0(i64 8, ptr %3) #14
  store ptr null, ptr %3, align 8, !annotation !4
  %10 = load atomic i64, ptr @cpus_queue monotonic, align 8
  store i64 %10, ptr %3, align 8
  call void asm sideeffect "", "~{memory},~{dirflag},~{fpsr},~{flags}"() #14, !srcloc !27
  %11 = load ptr, ptr %3, align 8
  store ptr %11, ptr %4, align 8
  call void @llvm.lifetime.end.p0(i64 8, ptr %3) #14
  %12 = load ptr, ptr %4, align 8
  store ptr %12, ptr %1, align 8
  br label %13

13:                                               ; preds = %34, %9
  %14 = load ptr, ptr %1, align 8
  %15 = icmp ne ptr %14, null
  br i1 %15, label %16, label %40

16:                                               ; preds = %13
  %17 = load i32, ptr %2, align 4
  %18 = load ptr, ptr %1, align 8
  %19 = getelementptr inbounds nuw %struct.CPUState, ptr %18, i32 0, i32 51
  %20 = load i32, ptr %19, align 16
  %21 = icmp ule i32 %17, %20
  br i1 %21, label %22, label %27

22:                                               ; preds = %16
  %23 = load ptr, ptr %1, align 8
  %24 = getelementptr inbounds nuw %struct.CPUState, ptr %23, i32 0, i32 51
  %25 = load i32, ptr %24, align 16
  %26 = add i32 %25, 1
  br label %29

27:                                               ; preds = %16
  %28 = load i32, ptr %2, align 4
  br label %29

29:                                               ; preds = %27, %22
  %30 = phi i32 [ %26, %22 ], [ %28, %27 ]
  store i32 %30, ptr %2, align 4
  br label %31

31:                                               ; preds = %29
  br label %32

32:                                               ; preds = %31
  br i1 false, label %33, label %34

33:                                               ; preds = %32
  call void @qemu_build_not_reached_always() #17, !srcloc !28
  unreachable

34:                                               ; preds = %32
  call void @llvm.lifetime.start.p0(i64 8, ptr %5) #14
  store ptr null, ptr %5, align 8, !annotation !4
  %35 = load ptr, ptr %1, align 8
  %36 = getelementptr inbounds nuw %struct.CPUState, ptr %35, i32 0, i32 35
  %37 = load atomic i64, ptr %36 monotonic, align 16
  store i64 %37, ptr %5, align 8
  call void asm sideeffect "", "~{memory},~{dirflag},~{fpsr},~{flags}"() #14, !srcloc !29
  %38 = load ptr, ptr %5, align 8
  store ptr %38, ptr %6, align 8
  call void @llvm.lifetime.end.p0(i64 8, ptr %5) #14
  %39 = load ptr, ptr %6, align 8
  store ptr %39, ptr %1, align 8
  br label %13, !llvm.loop !30

40:                                               ; preds = %13
  %41 = load i32, ptr %2, align 4
  call void @llvm.lifetime.end.p0(i64 4, ptr %2) #14
  call void @llvm.lifetime.end.p0(i64 8, ptr %1) #14
  ret i32 %41
}