; Function Attrs: nounwind sspstrong uwtable
define dso_local i32 @gdb_get_max_cpus() local_unnamed_addr #0 {
  %1 = load atomic i64, ptr @cpus_queue monotonic, align 8
  tail call void asm sideeffect "", "~{memory},~{dirflag},~{fpsr},~{flags}"() #16, !srcloc !25
  %.not13 = icmp eq i64 %1, 0
  br i1 %.not13, label %._crit_edge, label %.lr.ph

.lr.ph:                                           ; preds = %0, %.lr.ph
  %.0.in15 = phi i64 [ %7, %.lr.ph ], [ %1, %0 ]
  %.01014 = phi i32 [ %5, %.lr.ph ], [ 1, %0 ]
  %.0 = inttoptr i64 %.0.in15 to ptr
  %2 = getelementptr inbounds nuw i8, ptr %.0, i64 704
  %3 = load i32, ptr %2, align 16
  %.not12 = icmp ugt i32 %.01014, %3
  %4 = add i32 %3, 1
  %5 = select i1 %.not12, i32 %.01014, i32 %4
  %6 = getelementptr inbounds nuw i8, ptr %.0, i64 560
  %7 = load atomic i64, ptr %6 monotonic, align 16
  tail call void asm sideeffect "", "~{memory},~{dirflag},~{fpsr},~{flags}"() #16, !srcloc !26
  %.not = icmp eq i64 %7, 0
  br i1 %.not, label %._crit_edge, label %.lr.ph, !llvm.loop !27

._crit_edge:                                      ; preds = %.lr.ph, %0
  %.010.lcssa = phi i32 [ 1, %0 ], [ %5, %.lr.ph ]
  ret i32 %.010.lcssa
}